target datalayout = "e-m:e-p270:32:32-p271:32:32-p272:64:64-i64:64-i128:128-f80:128-n8:16:32:64-S128"
target triple = "x86_64-pc-linux-gnu"

%struct.rlglData = type { ptr, %struct.rlRenderBatch, %struct.anon, %struct.anon.0 }
%struct.rlRenderBatch = type { i32, i32, ptr, ptr, i32, float }
%struct.anon = type { i32, float, float, float, float, float, i8, i8, i8, i8, i32, ptr, %struct.Matrix, %struct.Matrix, %struct.Matrix, i8, [32 x %struct.Matrix], i32, i32, [4 x i32], i32, i32, i32, ptr, i32, ptr, i8, [2 x %struct.Matrix], [2 x %struct.Matrix], i32, i32, i32, i32, i32, i32, i32, i32, i32, i32, i8, i32, i32 }
%struct.Matrix = type { float, float, float, float, float, float, float, float, float, float, float, float, float, float, float, float }
%struct.anon.0 = type { i8, i8, i8, i8, i8, i8, i8, i8, i8, i8, i8, i8, i8, i8, i8, i8, float, i32 }

@glad_glBindVertexArray = global ptr null, align 8
@RLGL = internal global %struct.rlglData zeroinitializer, align 8

; Function Attrs: nounwind uwtable
define zeroext i1 @rlEnableVertexArray(i32 noundef %0) #0 {
  %2 = alloca i32, align 4
  %3 = alloca i8, align 1
  store i32 %0, ptr %2, align 4
  call void @llvm.lifetime.start.p0(i64 1, ptr %3) #16
  store i8 0, ptr %3, align 1
  %4 = load i8, ptr getelementptr inbounds nuw (%struct.rlglData, ptr @RLGL, i32 0, i32 3), align 8, !range !3, !noundef !4
  %5 = trunc i8 %4 to i1
  br i1 %5, label %6, label %9

6:                                                ; preds = %1
  %7 = load ptr, ptr @glad_glBindVertexArray, align 8
  %8 = load i32, ptr %2, align 4
  call void %7(i32 noundef %8)
  store i8 1, ptr %3, align 1
  br label %9

9:                                                ; preds = %6, %1
  %10 = load i8, ptr %3, align 1, !range !3, !noundef !4
  %11 = trunc i8 %10 to i1
  call void @llvm.lifetime.end.p0(i64 1, ptr %3) #16
  ret i1 %11
}