; Function Attrs: nounwind uwtable
define noundef zeroext i1 @rlEnableVertexArray(i32 noundef %0) local_unnamed_addr #0 {
  %2 = load i8, ptr getelementptr inbounds nuw (i8, ptr @RLGL, i64 2696), align 8, !range !3, !noundef !4
  %3 = trunc nuw i8 %2 to i1
  br i1 %3, label %4, label %6

4:                                                ; preds = %1
  %5 = load ptr, ptr @glad_glBindVertexArray, align 8
  tail call void %5(i32 noundef %0) #56
  br label %6

6:                                                ; preds = %4, %1
  ret i1 %3
}